target datalayout = "e-m:e-p270:32:32-p271:32:32-p272:64:64-i64:64-i128:128-f80:128-n8:16:32:64-S128"
target triple = "x86_64-pc-linux-gnu"

; Function Attrs: mustprogress uwtable
define hidden i32 @hb_ot_layout_table_choose_script(ptr noundef %0, i32 noundef %1, ptr noundef %2, ptr noundef %3, ptr noundef %4) #0 {
  %6 = alloca ptr, align 8
  %7 = alloca i32, align 4
  %8 = alloca ptr, align 8
  %9 = alloca ptr, align 8
  %10 = alloca ptr, align 8
  %11 = alloca ptr, align 8
  store ptr %0, ptr %6, align 8
  store i32 %1, ptr %7, align 4
  store ptr %2, ptr %8, align 8
  store ptr %3, ptr %9, align 8
  store ptr %4, ptr %10, align 8
  %12 = load ptr, ptr %8, align 8
  store ptr %12, ptr %11, align 8
  br label %13

13:                                               ; preds = %18, %5
  %14 = load ptr, ptr %11, align 8
  %15 = load i32, ptr %14, align 4
  %16 = icmp ne i32 %15, 0
  br i1 %16, label %17, label %21

17:                                               ; preds = %13
  br label %18

18:                                               ; preds = %17
  %19 = load ptr, ptr %11, align 8
  %20 = getelementptr inbounds i32, ptr %19, i32 1
  store ptr %20, ptr %11, align 8
  br label %13, !llvm.loop !6

21:                                               ; preds = %13
  %22 = load ptr, ptr %6, align 8
  %23 = load i32, ptr %7, align 4
  %24 = load ptr, ptr %11, align 8
  %25 = load ptr, ptr %8, align 8
  %26 = ptrtoint ptr %24 to i64
  %27 = ptrtoint ptr %25 to i64
  %28 = sub i64 %26, %27
  %29 = sdiv exact i64 %28, 4
  %30 = trunc i64 %29 to i32
  %31 = load ptr, ptr %8, align 8
  %32 = load ptr, ptr %9, align 8
  %33 = load ptr, ptr %10, align 8
  %34 = call i32 @hb_ot_layout_table_select_script(ptr noundef %22, i32 noundef %23, i32 noundef %30, ptr noundef %31, ptr noundef %32, ptr noundef %33)
  ret i32 %34
}