; Function Attrs: mustprogress uwtable
define hidden range(i32 0, 2) i32 @hb_ot_layout_table_choose_script(ptr noundef %0, i32 noundef %1, ptr noundef %2, ptr noundef %3, ptr noundef %4) local_unnamed_addr #0 {
  br label %6

6:                                                ; preds = %6, %5
  %.0 = phi ptr [ %2, %5 ], [ %8, %6 ]
  %7 = load i32, ptr %.0, align 4
  %.not = icmp eq i32 %7, 0
  %8 = getelementptr inbounds i8, ptr %.0, i64 4
  br i1 %.not, label %9, label %6, !llvm.loop !16

9:                                                ; preds = %6
  %10 = ptrtoint ptr %.0 to i64
  %11 = ptrtoint ptr %2 to i64
  %12 = sub i64 %10, %11
  %13 = lshr exact i64 %12, 2
  %14 = trunc i64 %13 to i32
  %15 = tail call i32 @hb_ot_layout_table_select_script(ptr noundef %0, i32 noundef %1, i32 noundef %14, ptr noundef %2, ptr noundef %3, ptr noundef %4)
  ret i32 %15
}